target datalayout = "e-m:e-p270:32:32-p271:32:32-p272:64:64-i64:64-i128:128-f80:128-n8:16:32:64-S128"
target triple = "x86_64-pc-linux-gnu"

%struct.CTState = type { ptr, i32, i32, ptr, ptr, ptr, %struct.CCallback, [128 x i16] }
%struct.CCallback = type { [8 x %union.FPRCBArg], [8 x i64], ptr, ptr, ptr, i32, i32, i32 }
%union.FPRCBArg = type { double }

; Function Attrs: nounwind uwtable
define internal i32 @CALLBACK_OFS2SLOT(i32 noundef %0) #0 {
  %2 = alloca i32, align 4
  %3 = alloca i32, align 4
  store i32 %0, ptr %2, align 4, !tbaa !22
  call void @llvm.lifetime.start.p0(i64 4, ptr %3) #9
  %4 = load i32, ptr %2, align 4, !tbaa !22
  %5 = sub i32 %4, 8
  store i32 %5, ptr %2, align 4, !tbaa !22
  %6 = load i32, ptr %2, align 4, !tbaa !22
  %7 = udiv i32 %6, 145
  store i32 %7, ptr %3, align 4, !tbaa !22
  %8 = load i32, ptr %2, align 4, !tbaa !22
  %9 = urem i32 %8, 145
  %10 = udiv i32 %9, 4
  %11 = load i32, ptr %3, align 4, !tbaa !22
  %12 = mul i32 %11, 32
  %13 = add i32 %10, %12
  call void @llvm.lifetime.end.p0(i64 4, ptr %3) #9
  ret i32 %13
}

; Function Attrs: nounwind uwtable
define hidden i32 @lj_ccallback_ptr2slot(ptr noundef %0, ptr noundef %1) #0 {
  %3 = alloca i32, align 4
  %4 = alloca ptr, align 8
  %5 = alloca ptr, align 8
  %6 = alloca i64, align 8
  %7 = alloca i32, align 4
  %8 = alloca i32, align 4
  store ptr %0, ptr %4, align 8, !tbaa !4
  store ptr %1, ptr %5, align 8, !tbaa !9
  call void @llvm.lifetime.start.p0(i64 8, ptr %6) #9
  %9 = load ptr, ptr %5, align 8, !tbaa !9
  %10 = load ptr, ptr %4, align 8, !tbaa !4
  %11 = getelementptr inbounds nuw %struct.CTState, ptr %10, i32 0, i32 6
  %12 = getelementptr inbounds nuw %struct.CCallback, ptr %11, i32 0, i32 3
  %13 = load ptr, ptr %12, align 8, !tbaa !10
  %14 = ptrtoint ptr %9 to i64
  %15 = ptrtoint ptr %13 to i64
  %16 = sub i64 %14, %15
  store i64 %16, ptr %6, align 8, !tbaa !20
  %17 = load i64, ptr %6, align 8, !tbaa !20
  %18 = icmp ult i64 %17, 4096
  br i1 %18, label %19, label %39

19:                                               ; preds = %2
  call void @llvm.lifetime.start.p0(i64 4, ptr %7) #9
  %20 = load i64, ptr %6, align 8, !tbaa !20
  %21 = trunc i64 %20 to i32
  %22 = call i32 @CALLBACK_OFS2SLOT(i32 noundef %21)
  store i32 %22, ptr %7, align 4, !tbaa !22
  %23 = load i32, ptr %7, align 4, !tbaa !22
  %24 = udiv i32 %23, 32
  %25 = mul i32 17, %24
  %26 = add i32 8, %25
  %27 = load i32, ptr %7, align 4, !tbaa !22
  %28 = mul i32 4, %27
  %29 = add i32 %26, %28
  %30 = load i64, ptr %6, align 8, !tbaa !20
  %31 = trunc i64 %30 to i32
  %32 = icmp eq i32 %29, %31
  br i1 %32, label %33, label %35

33:                                               ; preds = %19
  %34 = load i32, ptr %7, align 4, !tbaa !22
  store i32 %34, ptr %3, align 4
  store i32 1, ptr %8, align 4
  br label %36

35:                                               ; preds = %19
  store i32 0, ptr %8, align 4
  br label %36

36:                                               ; preds = %35, %33
  call void @llvm.lifetime.end.p0(i64 4, ptr %7) #9
  %37 = load i32, ptr %8, align 4
  switch i32 %37, label %40 [
    i32 0, label %38
  ]

38:                                               ; preds = %36
  br label %39

39:                                               ; preds = %38, %2
  store i32 -1, ptr %3, align 4
  store i32 1, ptr %8, align 4
  br label %40

40:                                               ; preds = %39, %36
  call void @llvm.lifetime.end.p0(i64 8, ptr %6) #9
  %41 = load i32, ptr %3, align 4
  ret i32 %41
}