; Function Attrs: mustprogress nofree norecurse nosync nounwind willreturn memory(argmem: read) uwtable
define hidden range(i32 -1, 947854885) i32 @lj_ccallback_ptr2slot(ptr noundef readonly captures(none) %0, ptr noundef %1) local_unnamed_addr #0 {
  %3 = getelementptr inbounds nuw i8, ptr %0, i64 176
  %4 = load ptr, ptr %3, align 8, !tbaa !4
  %5 = ptrtoint ptr %1 to i64
  %6 = ptrtoint ptr %4 to i64
  %7 = sub i64 %5, %6
  %8 = icmp ult i64 %7, 4096
  br i1 %8, label %9, label %22

9:                                                ; preds = %2
  %10 = trunc nuw nsw i64 %7 to i32
  %11 = add nsw i32 %10, -8
  %12 = udiv i32 %11, 145
  %13 = urem i32 %11, 145
  %14 = lshr i32 %13, 2
  %15 = shl nuw nsw i32 %12, 5
  %16 = add nuw nsw i32 %14, %15
  %17 = lshr i32 %16, 5
  %18 = mul nuw nsw i32 %17, 17
  %19 = shl nuw i32 %16, 2
  %20 = add nuw i32 %19, 8
  %21 = add i32 %20, %18
  %.not = icmp eq i32 %21, %10
  br i1 %.not, label %23, label %22

22:                                               ; preds = %9, %2
  br label %23

23:                                               ; preds = %9, %22
  %.1 = phi i32 [ -1, %22 ], [ %16, %9 ]
  ret i32 %.1
}